target datalayout = "e-m:e-p270:32:32-p271:32:32-p272:64:64-i64:64-i128:128-f80:128-n8:16:32:64-S128"
target triple = "x86_64-pc-linux-gnu"

%struct.Ivy_FraigMan_t_ = type { ptr, i64, i64, ptr, ptr, i32, ptr, ptr, i32, ptr, ptr, %struct.Ivy_FraigList_t_, %struct.Ivy_FraigList_t_, i32, ptr, i32, ptr, ptr, i32, i32, i32, i32, i32, i32, i32, i32, i32, i32, i32, i32, i32, i64, i64, i64, i64, i64, i64, i64, i64, i64, i64 }
%struct.Ivy_FraigList_t_ = type { ptr, ptr, i32 }
%struct.Ivy_FraigSim_t_ = type { i32, ptr, ptr, ptr, [0 x i32] }
%struct.timespec = type { i64, i64 }

; Function Attrs: inlinehint nounwind uwtable
define internal i64 @Abc_Clock() #4 {
  %1 = alloca i64, align 8
  %2 = alloca %struct.timespec, align 8
  %3 = alloca i32, align 4
  %4 = alloca i64, align 8
  call void @llvm.lifetime.start.p0(i64 16, ptr %2) #12
  %5 = call i32 @clock_gettime(i32 noundef 1, ptr noundef %2) #12
  %6 = icmp slt i32 %5, 0
  br i1 %6, label %7, label %8

7:                                                ; preds = %0
  store i64 -1, ptr %1, align 8
  store i32 1, ptr %3, align 4
  br label %19

8:                                                ; preds = %0
  call void @llvm.lifetime.start.p0(i64 8, ptr %4) #12
  %9 = getelementptr inbounds nuw %struct.timespec, ptr %2, i32 0, i32 0
  %10 = load i64, ptr %9, align 8, !tbaa !260
  %11 = mul nsw i64 %10, 1000000
  store i64 %11, ptr %4, align 8, !tbaa !25
  %12 = getelementptr inbounds nuw %struct.timespec, ptr %2, i32 0, i32 1
  %13 = load i64, ptr %12, align 8, !tbaa !262
  %14 = mul nsw i64 %13, 1000000
  %15 = sdiv i64 %14, 1000000000
  %16 = load i64, ptr %4, align 8, !tbaa !25
  %17 = add nsw i64 %16, %15
  store i64 %17, ptr %4, align 8, !tbaa !25
  %18 = load i64, ptr %4, align 8, !tbaa !25
  store i64 %18, ptr %1, align 8
  store i32 1, ptr %3, align 4
  call void @llvm.lifetime.end.p0(i64 8, ptr %4) #12
  br label %19

19:                                               ; preds = %8, %7
  call void @llvm.lifetime.end.p0(i64 16, ptr %2) #12
  %20 = load i64, ptr %1, align 8
  ret i64 %20
}

; Function Attrs: nounwind uwtable
define void @Ivy_FraigSimulateOneSim(ptr noundef %0) #0 {
  %2 = alloca ptr, align 8
  %3 = alloca ptr, align 8
  %4 = alloca i64, align 8
  store ptr %0, ptr %2, align 8, !tbaa !60
  call void @llvm.lifetime.start.p0(i64 8, ptr %3) #12
  call void @llvm.lifetime.start.p0(i64 8, ptr %4) #12
  %5 = call i64 @Abc_Clock()
  store i64 %5, ptr %4, align 8, !tbaa !25
  %6 = load ptr, ptr %2, align 8, !tbaa !60
  %7 = getelementptr inbounds nuw %struct.Ivy_FraigMan_t_, ptr %6, i32 0, i32 7
  %8 = load ptr, ptr %7, align 8, !tbaa !105
  store ptr %8, ptr %3, align 8, !tbaa !102
  br label %9

9:                                                ; preds = %15, %1
  %10 = load ptr, ptr %3, align 8, !tbaa !102
  %11 = icmp ne ptr %10, null
  br i1 %11, label %12, label %19

12:                                               ; preds = %9
  %13 = load ptr, ptr %2, align 8, !tbaa !60
  %14 = load ptr, ptr %3, align 8, !tbaa !102
  call void @Ivy_NodeSimulateSim(ptr noundef %13, ptr noundef %14)
  br label %15

15:                                               ; preds = %12
  %16 = load ptr, ptr %3, align 8, !tbaa !102
  %17 = getelementptr inbounds nuw %struct.Ivy_FraigSim_t_, ptr %16, i32 0, i32 1
  %18 = load ptr, ptr %17, align 8, !tbaa !103
  store ptr %18, ptr %3, align 8, !tbaa !102
  br label %9, !llvm.loop !167

19:                                               ; preds = %9
  %20 = call i64 @Abc_Clock()
  %21 = load i64, ptr %4, align 8, !tbaa !25
  %22 = sub nsw i64 %20, %21
  %23 = load ptr, ptr %2, align 8, !tbaa !60
  %24 = getelementptr inbounds nuw %struct.Ivy_FraigMan_t_, ptr %23, i32 0, i32 31
  %25 = load i64, ptr %24, align 8, !tbaa !165
  %26 = add nsw i64 %25, %22
  store i64 %26, ptr %24, align 8, !tbaa !165
  %27 = load ptr, ptr %2, align 8, !tbaa !60
  %28 = getelementptr inbounds nuw %struct.Ivy_FraigMan_t_, ptr %27, i32 0, i32 18
  %29 = load i32, ptr %28, align 8, !tbaa !166
  %30 = add nsw i32 %29, 1
  store i32 %30, ptr %28, align 8, !tbaa !166
  call void @llvm.lifetime.end.p0(i64 8, ptr %4) #12
  call void @llvm.lifetime.end.p0(i64 8, ptr %3) #12
  ret void
}