; Function Attrs: nounwind uwtable
define void @Ivy_FraigSimulateOneSim(ptr noundef captures(none) %0) local_unnamed_addr #2 {
  %2 = alloca %struct.timespec, align 8
  %3 = alloca %struct.timespec, align 8
  call void @llvm.lifetime.start.p0(i64 16, ptr nonnull %3) #26
  %4 = call i32 @clock_gettime(i32 noundef 1, ptr noundef nonnull %3) #26
  %5 = icmp slt i32 %4, 0
  br i1 %5, label %Abc_Clock.exit, label %6

6:                                                ; preds = %1
  %7 = load i64, ptr %3, align 8, !tbaa !35
  %.neg9 = mul i64 %7, -1000000
  %8 = getelementptr inbounds nuw i8, ptr %3, i64 8
  %9 = load i64, ptr %8, align 8, !tbaa !37
  %.neg = sdiv i64 %9, -1000
  %.neg10 = add i64 %.neg, %.neg9
  br label %Abc_Clock.exit

Abc_Clock.exit:                                   ; preds = %1, %6
  %.0.i.neg = phi i64 [ %.neg10, %6 ], [ 1, %1 ]
  call void @llvm.lifetime.end.p0(i64 16, ptr nonnull %3) #26
  %10 = getelementptr inbounds nuw i8, ptr %0, i64 56
  %.011 = load ptr, ptr %10, align 8, !tbaa !178
  %.not12 = icmp eq ptr %.011, null
  br i1 %.not12, label %._crit_edge, label %.lr.ph

.lr.ph:                                           ; preds = %Abc_Clock.exit, %.lr.ph
  %.013 = phi ptr [ %.0, %.lr.ph ], [ %.011, %Abc_Clock.exit ]
  call void @Ivy_NodeSimulateSim(ptr noundef %0, ptr noundef nonnull %.013)
  %11 = getelementptr inbounds nuw i8, ptr %.013, i64 8
  %.0 = load ptr, ptr %11, align 8, !tbaa !178
  %.not = icmp eq ptr %.0, null
  br i1 %.not, label %._crit_edge, label %.lr.ph, !llvm.loop !179

._crit_edge:                                      ; preds = %.lr.ph, %Abc_Clock.exit
  call void @llvm.lifetime.start.p0(i64 16, ptr nonnull %2) #26
  %12 = call i32 @clock_gettime(i32 noundef 1, ptr noundef nonnull %2) #26
  %13 = icmp slt i32 %12, 0
  br i1 %13, label %Abc_Clock.exit8, label %14

14:                                               ; preds = %._crit_edge
  %15 = load i64, ptr %2, align 8, !tbaa !35
  %16 = mul nsw i64 %15, 1000000
  %17 = getelementptr inbounds nuw i8, ptr %2, i64 8
  %18 = load i64, ptr %17, align 8, !tbaa !37
  %19 = sdiv i64 %18, 1000
  %20 = add nsw i64 %19, %16
  br label %Abc_Clock.exit8

Abc_Clock.exit8:                                  ; preds = %._crit_edge, %14
  %.0.i7 = phi i64 [ %20, %14 ], [ -1, %._crit_edge ]
  call void @llvm.lifetime.end.p0(i64 16, ptr nonnull %2) #26
  %21 = add i64 %.0.i7, %.0.i.neg
  %22 = getelementptr inbounds nuw i8, ptr %0, i64 232
  %23 = load i64, ptr %22, align 8, !tbaa !151
  %24 = add nsw i64 %21, %23
  store i64 %24, ptr %22, align 8, !tbaa !151
  %25 = getelementptr inbounds nuw i8, ptr %0, i64 176
  %26 = load i32, ptr %25, align 8, !tbaa !147
  %27 = add nsw i32 %26, 1
  store i32 %27, ptr %25, align 8, !tbaa !147
  ret void
}